target datalayout = "e-m:e-p270:32:32-p271:32:32-p272:64:64-i64:64-i128:128-f80:128-n8:16:32:64-S128"
target triple = "x86_64-pc-linux-gnu"

%"struct.cv::xphoto::grayDctDenoisingInvoker" = type { %"class.cv::ParallelLoopBody", ptr, ptr, i32, double, double }
%"class.cv::ParallelLoopBody" = type { ptr }

@_ZTVN2cv16ParallelLoopBodyE = external unnamed_addr constant { [5 x ptr] }, align 8

; Function Attrs: mustprogress nounwind uwtable
define linkonce_odr hidden void @_ZN2cv16ParallelLoopBodyC2Ev(ptr noundef nonnull align 8 dereferenceable(8) %0) unnamed_addr #4 comdat align 2 {
  %2 = alloca ptr, align 8
  store ptr %0, ptr %2, align 8
  %3 = load ptr, ptr %2, align 8
  store ptr getelementptr inbounds inrange(-16, 24) ({ [5 x ptr] }, ptr @_ZTVN2cv16ParallelLoopBodyE, i32 0, i32 0, i32 2), ptr %3, align 8
  ret void
}

; Function Attrs: mustprogress nounwind uwtable
define hidden void @_ZN2cv6xphoto23grayDctDenoisingInvokerC2ERKNS_3MatERSt6vectorIS2_SaIS2_EEdi(ptr noundef nonnull align 8 dereferenceable(48) %0, ptr noundef nonnull align 8 dereferenceable(96) %1, ptr noundef nonnull align 8 dereferenceable(24) %2, double noundef %3, i32 noundef %4) unnamed_addr #4 align 2 {
  %6 = alloca ptr, align 8
  %7 = alloca ptr, align 8
  %8 = alloca ptr, align 8
  %9 = alloca double, align 8
  %10 = alloca i32, align 4
  store ptr %0, ptr %6, align 8
  store ptr %1, ptr %7, align 8
  store ptr %2, ptr %8, align 8
  store double %3, ptr %9, align 8
  store i32 %4, ptr %10, align 4
  %11 = load ptr, ptr %6, align 8
  call void @_ZN2cv16ParallelLoopBodyC2Ev(ptr noundef nonnull align 8 dereferenceable(8) %11) #3
  store ptr getelementptr inbounds inrange(-16, 24) ({ [5 x ptr] }, ptr @_ZTVN2cv6xphoto23grayDctDenoisingInvokerE, i32 0, i32 0, i32 2), ptr %11, align 8
  %12 = getelementptr inbounds %"struct.cv::xphoto::grayDctDenoisingInvoker", ptr %11, i32 0, i32 1
  %13 = load ptr, ptr %7, align 8
  store ptr %13, ptr %12, align 8
  %14 = getelementptr inbounds %"struct.cv::xphoto::grayDctDenoisingInvoker", ptr %11, i32 0, i32 2
  %15 = load ptr, ptr %8, align 8
  store ptr %15, ptr %14, align 8
  %16 = getelementptr inbounds %"struct.cv::xphoto::grayDctDenoisingInvoker", ptr %11, i32 0, i32 3
  %17 = load i32, ptr %10, align 4
  store i32 %17, ptr %16, align 8
  %18 = getelementptr inbounds %"struct.cv::xphoto::grayDctDenoisingInvoker", ptr %11, i32 0, i32 4
  %19 = load double, ptr %9, align 8
  store double %19, ptr %18, align 8
  %20 = getelementptr inbounds %"struct.cv::xphoto::grayDctDenoisingInvoker", ptr %11, i32 0, i32 5
  %21 = load double, ptr %9, align 8
  %22 = fmul double 3.000000e+00, %21
  store double %22, ptr %20, align 8
  ret void
}