; Function Attrs: mustprogress nofree norecurse nosync nounwind willreturn memory(argmem: write) uwtable
define hidden void @_ZN2cv6xphoto23grayDctDenoisingInvokerC2ERKNS_3MatERSt6vectorIS2_SaIS2_EEdi(ptr nocapture noundef nonnull writeonly align 8 dereferenceable(48) %0, ptr noundef nonnull align 8 dereferenceable(96) %1, ptr noundef nonnull align 8 dereferenceable(24) %2, double noundef %3, i32 noundef %4) unnamed_addr #3 align 2 {
  store ptr getelementptr inbounds inrange(-16, 24) (i8, ptr @_ZTVN2cv6xphoto23grayDctDenoisingInvokerE, i64 16), ptr %0, align 8
  %6 = getelementptr inbounds i8, ptr %0, i64 8
  store ptr %1, ptr %6, align 8
  %7 = getelementptr inbounds i8, ptr %0, i64 16
  store ptr %2, ptr %7, align 8
  %8 = getelementptr inbounds i8, ptr %0, i64 24
  store i32 %4, ptr %8, align 8
  %9 = getelementptr inbounds i8, ptr %0, i64 32
  store double %3, ptr %9, align 8
  %10 = getelementptr inbounds i8, ptr %0, i64 40
  %11 = fmul double %3, 3.000000e+00
  store double %11, ptr %10, align 8
  ret void
}